target datalayout = "e-m:e-p270:32:32-p271:32:32-p272:64:64-i64:64-i128:128-f80:128-n8:16:32:64-S128"
target triple = "x86_64-pc-linux-gnu"

%struct.ml_dsa_gen_ctx = type { ptr, ptr, [32 x i8], i64 }

@.str = private unnamed_addr constant [19 x i8] c"ml-dsa.prefer_seed\00", align 1
@.str.1 = private unnamed_addr constant [19 x i8] c"ml-dsa.retain_seed\00", align 1
@.str.3 = private unnamed_addr constant [60 x i8] c"../openssl/providers/implementations/keymgmt/ml_dsa_kmgmt.c\00", align 1
@__func__.ml_dsa_gen = private unnamed_addr constant [11 x i8] c"ml_dsa_gen\00", align 1

; Function Attrs: nounwind uwtable
define internal ptr @ml_dsa_new_key(ptr noundef %0, ptr noundef %1, i32 noundef %2) #0 {
  %4 = alloca ptr, align 8
  %5 = alloca ptr, align 8
  %6 = alloca ptr, align 8
  %7 = alloca i32, align 4
  %8 = alloca ptr, align 8
  %9 = alloca i32, align 4
  %10 = alloca i32, align 4
  %11 = alloca i32, align 4
  store ptr %0, ptr %5, align 8, !tbaa !3
  store ptr %1, ptr %6, align 8, !tbaa !13
  store i32 %2, ptr %7, align 4, !tbaa !7
  call void @llvm.lifetime.start.p0(i64 8, ptr %8) #5
  call void @llvm.lifetime.start.p0(i64 4, ptr %9) #5
  call void @llvm.lifetime.start.p0(i64 4, ptr %10) #5
  %12 = call i32 @ossl_prov_is_running()
  %13 = icmp ne i32 %12, 0
  br i1 %13, label %15, label %14

14:                                               ; preds = %3
  store ptr null, ptr %4, align 8
  store i32 1, ptr %11, align 4
  br label %34

15:                                               ; preds = %3
  %16 = load ptr, ptr %5, align 8, !tbaa !3
  %17 = call ptr @ossl_prov_ctx_get0_libctx(ptr noundef %16)
  %18 = load ptr, ptr %6, align 8, !tbaa !13
  %19 = load i32, ptr %7, align 4, !tbaa !7
  %20 = call ptr @ossl_ml_dsa_key_new(ptr noundef %17, ptr noundef %18, i32 noundef %19)
  store ptr %20, ptr %8, align 8, !tbaa !9
  %21 = load ptr, ptr %8, align 8, !tbaa !9
  %22 = icmp ne ptr %21, null
  br i1 %22, label %23, label %32

23:                                               ; preds = %15
  %24 = load ptr, ptr %5, align 8, !tbaa !3
  %25 = call i32 @ossl_prov_ctx_get_bool_param(ptr noundef %24, ptr noundef @.str, i32 noundef 1)
  store i32 %25, ptr %9, align 4, !tbaa !7
  %26 = load ptr, ptr %5, align 8, !tbaa !3
  %27 = call i32 @ossl_prov_ctx_get_bool_param(ptr noundef %26, ptr noundef @.str.1, i32 noundef 1)
  store i32 %27, ptr %10, align 4, !tbaa !7
  %28 = load ptr, ptr %8, align 8, !tbaa !9
  %29 = load i32, ptr %9, align 4, !tbaa !7
  %30 = load i32, ptr %10, align 4, !tbaa !7
  %31 = call i32 @ossl_ml_dsa_set_prekey(ptr noundef %28, i32 noundef %29, i32 noundef %30, ptr noundef null, i64 noundef 0, ptr noundef null, i64 noundef 0)
  br label %32

32:                                               ; preds = %23, %15
  %33 = load ptr, ptr %8, align 8, !tbaa !9
  store ptr %33, ptr %4, align 8
  store i32 1, ptr %11, align 4
  br label %34

34:                                               ; preds = %32, %14
  call void @llvm.lifetime.end.p0(i64 4, ptr %10) #5
  call void @llvm.lifetime.end.p0(i64 4, ptr %9) #5
  call void @llvm.lifetime.end.p0(i64 8, ptr %8) #5
  %35 = load ptr, ptr %4, align 8
  ret ptr %35
}

; Function Attrs: nounwind uwtable
define internal ptr @ml_dsa_gen(ptr noundef %0, i32 noundef %1) #0 {
  %3 = alloca ptr, align 8
  %4 = alloca ptr, align 8
  %5 = alloca i32, align 4
  %6 = alloca ptr, align 8
  %7 = alloca ptr, align 8
  %8 = alloca i32, align 4
  store ptr %0, ptr %4, align 8, !tbaa !3
  store i32 %1, ptr %5, align 4, !tbaa !7
  call void @llvm.lifetime.start.p0(i64 8, ptr %6) #5
  %9 = load ptr, ptr %4, align 8, !tbaa !3
  store ptr %9, ptr %6, align 8, !tbaa !18
  call void @llvm.lifetime.start.p0(i64 8, ptr %7) #5
  store ptr null, ptr %7, align 8, !tbaa !9
  %10 = call i32 @ossl_prov_is_running()
  %11 = icmp ne i32 %10, 0
  br i1 %11, label %13, label %12

12:                                               ; preds = %2
  store ptr null, ptr %3, align 8
  store i32 1, ptr %8, align 4
  br label %50

13:                                               ; preds = %2
  %14 = load ptr, ptr %6, align 8, !tbaa !18
  %15 = getelementptr inbounds nuw %struct.ml_dsa_gen_ctx, ptr %14, i32 0, i32 0
  %16 = load ptr, ptr %15, align 8, !tbaa !20
  %17 = load ptr, ptr %6, align 8, !tbaa !18
  %18 = getelementptr inbounds nuw %struct.ml_dsa_gen_ctx, ptr %17, i32 0, i32 1
  %19 = load ptr, ptr %18, align 8, !tbaa !24
  %20 = load i32, ptr %5, align 4, !tbaa !7
  %21 = call ptr @ml_dsa_new_key(ptr noundef %16, ptr noundef %19, i32 noundef %20)
  store ptr %21, ptr %7, align 8, !tbaa !9
  %22 = load ptr, ptr %7, align 8, !tbaa !9
  %23 = icmp eq ptr %22, null
  br i1 %23, label %24, label %25

24:                                               ; preds = %13
  store ptr null, ptr %3, align 8
  store i32 1, ptr %8, align 4
  br label %50

25:                                               ; preds = %13
  %26 = load ptr, ptr %6, align 8, !tbaa !18
  %27 = getelementptr inbounds nuw %struct.ml_dsa_gen_ctx, ptr %26, i32 0, i32 3
  %28 = load i64, ptr %27, align 8, !tbaa !23
  %29 = icmp ne i64 %28, 0
  br i1 %29, label %30, label %41

30:                                               ; preds = %25
  %31 = load ptr, ptr %7, align 8, !tbaa !9
  %32 = load ptr, ptr %6, align 8, !tbaa !18
  %33 = getelementptr inbounds nuw %struct.ml_dsa_gen_ctx, ptr %32, i32 0, i32 2
  %34 = getelementptr inbounds [32 x i8], ptr %33, i64 0, i64 0
  %35 = load ptr, ptr %6, align 8, !tbaa !18
  %36 = getelementptr inbounds nuw %struct.ml_dsa_gen_ctx, ptr %35, i32 0, i32 3
  %37 = load i64, ptr %36, align 8, !tbaa !23
  %38 = call i32 @ossl_ml_dsa_set_prekey(ptr noundef %31, i32 noundef -1, i32 noundef -1, ptr noundef %34, i64 noundef %37, ptr noundef null, i64 noundef 0)
  %39 = icmp ne i32 %38, 0
  br i1 %39, label %41, label %40

40:                                               ; preds = %30
  br label %48

41:                                               ; preds = %30, %25
  %42 = load ptr, ptr %7, align 8, !tbaa !9
  %43 = call i32 @ossl_ml_dsa_generate_key(ptr noundef %42)
  %44 = icmp ne i32 %43, 0
  br i1 %44, label %46, label %45

45:                                               ; preds = %41
  call void @ERR_new()
  call void @ERR_set_debug(ptr noundef @.str.3, i32 noundef 439, ptr noundef @__func__.ml_dsa_gen)
  call void (i32, i32, ptr, ...) @ERR_set_error(i32 noundef 57, i32 noundef 121, ptr noundef null)
  br label %48

46:                                               ; preds = %41
  %47 = load ptr, ptr %7, align 8, !tbaa !9
  store ptr %47, ptr %3, align 8
  store i32 1, ptr %8, align 4
  br label %50

48:                                               ; preds = %45, %40
  %49 = load ptr, ptr %7, align 8, !tbaa !9
  call void @ossl_ml_dsa_key_free(ptr noundef %49)
  store ptr null, ptr %3, align 8
  store i32 1, ptr %8, align 4
  br label %50

50:                                               ; preds = %48, %46, %24, %12
  call void @llvm.lifetime.end.p0(i64 8, ptr %7) #5
  call void @llvm.lifetime.end.p0(i64 8, ptr %6) #5
  %51 = load ptr, ptr %3, align 8
  ret ptr %51
}