; Function Attrs: nounwind uwtable
define internal fastcc ptr @ml_dsa_gen(ptr noundef %0, i32 noundef range(i32 1457, 1460) %1) unnamed_addr #0 {
  %3 = tail call i32 @ossl_prov_is_running() #6
  %.not = icmp eq i32 %3, 0
  br i1 %.not, label %ml_dsa_new_key.exit.thread, label %4

4:                                                ; preds = %2
  %5 = load ptr, ptr %0, align 8, !tbaa !20
  %6 = getelementptr inbounds nuw i8, ptr %0, i64 8
  %7 = load ptr, ptr %6, align 8, !tbaa !24
  %8 = tail call i32 @ossl_prov_is_running() #6
  %.not.i = icmp eq i32 %8, 0
  br i1 %.not.i, label %ml_dsa_new_key.exit.thread, label %9

9:                                                ; preds = %4
  %10 = tail call ptr @ossl_prov_ctx_get0_libctx(ptr noundef %5) #6
  %11 = tail call ptr @ossl_ml_dsa_key_new(ptr noundef %10, ptr noundef %7, i32 noundef range(i32 1457, 1460) %1) #6
  %.not11.i = icmp eq ptr %11, null
  br i1 %.not11.i, label %ml_dsa_new_key.exit.thread, label %12

12:                                               ; preds = %9
  %13 = tail call i32 @ossl_prov_ctx_get_bool_param(ptr noundef %5, ptr noundef nonnull @.str, i32 noundef 1) #6
  %14 = tail call i32 @ossl_prov_ctx_get_bool_param(ptr noundef %5, ptr noundef nonnull @.str.1, i32 noundef 1) #6
  %15 = tail call i32 @ossl_ml_dsa_set_prekey(ptr noundef nonnull %11, i32 noundef %13, i32 noundef %14, ptr noundef null, i64 noundef 0, ptr noundef null, i64 noundef 0) #6
  %16 = getelementptr inbounds nuw i8, ptr %0, i64 48
  %17 = load i64, ptr %16, align 8, !tbaa !23
  %.not14 = icmp eq i64 %17, 0
  br i1 %.not14, label %21, label %18

18:                                               ; preds = %12
  %19 = getelementptr inbounds nuw i8, ptr %0, i64 16
  %20 = tail call i32 @ossl_ml_dsa_set_prekey(ptr noundef nonnull %11, i32 noundef -1, i32 noundef -1, ptr noundef nonnull %19, i64 noundef %17, ptr noundef null, i64 noundef 0) #6
  %.not15 = icmp eq i32 %20, 0
  br i1 %.not15, label %24, label %21

21:                                               ; preds = %18, %12
  %22 = tail call i32 @ossl_ml_dsa_generate_key(ptr noundef nonnull %11) #6
  %.not16 = icmp eq i32 %22, 0
  br i1 %.not16, label %23, label %ml_dsa_new_key.exit.thread

23:                                               ; preds = %21
  tail call void @ERR_new() #6
  tail call void @ERR_set_debug(ptr noundef nonnull @.str.3, i32 noundef 439, ptr noundef nonnull @__func__.ml_dsa_gen) #6
  tail call void (i32, i32, ptr, ...) @ERR_set_error(i32 noundef 57, i32 noundef 121, ptr noundef null) #6
  br label %24

24:                                               ; preds = %18, %23
  tail call void @ossl_ml_dsa_key_free(ptr noundef nonnull %11) #6
  br label %ml_dsa_new_key.exit.thread

ml_dsa_new_key.exit.thread:                       ; preds = %9, %4, %21, %2, %24
  %.0 = phi ptr [ null, %24 ], [ null, %2 ], [ %11, %21 ], [ null, %4 ], [ null, %9 ]
  ret ptr %.0
}